; Function Attrs: nofree norecurse nosync nounwind memory(readwrite, inaccessiblemem: none) uwtable
define hidden void @ByteBinary2BitToByteBinary2BitConvert(ptr noundef %0, ptr noundef %1, i32 noundef %2, i32 noundef %3, ptr nocapture noundef readonly %4, ptr nocapture noundef readonly %5, ptr nocapture readnone %6, ptr nocapture readnone %7) #0 {
  %9 = getelementptr inbounds i8, ptr %4, i64 40
  %10 = load ptr, ptr %9, align 8
  %11 = getelementptr inbounds i8, ptr %4, i64 32
  %12 = load i32, ptr %11, align 8
  %13 = getelementptr inbounds i8, ptr %5, i64 32
  %14 = load i32, ptr %13, align 8
  %15 = load i32, ptr %4, align 8
  %16 = load i32, ptr %5, align 8
  %17 = getelementptr inbounds i8, ptr %5, i64 48
  %18 = load ptr, ptr %17, align 8
  %19 = getelementptr inbounds i8, ptr %4, i64 24
  %20 = getelementptr inbounds i8, ptr %5, i64 24
  %21 = sext i32 %12 to i64
  %22 = sext i32 %14 to i64
  br label %23

23:                                               ; preds = %94, %8
  %.064 = phi ptr [ %1, %8 ], [ %103, %94 ]
  %.063 = phi ptr [ %0, %8 ], [ %101, %94 ]
  %.0 = phi i32 [ %3, %8 ], [ %104, %94 ]
  %24 = load i32, ptr %19, align 8
  %25 = sdiv i32 %24, 2
  %26 = add nsw i32 %25, %15
  %27 = sdiv i32 %26, 4
  %28 = srem i32 %26, 4
  %29 = shl nsw i32 %28, 1
  %30 = sub nsw i32 6, %29
  %31 = sext i32 %27 to i64
  %32 = getelementptr inbounds i8, ptr %.063, i64 %31
  %33 = load i8, ptr %32, align 1
  %34 = zext i8 %33 to i32
  %35 = load i32, ptr %20, align 8
  %36 = sdiv i32 %35, 2
  %37 = add nsw i32 %36, %16
  %38 = sdiv i32 %37, 4
  %39 = srem i32 %37, 4
  %40 = shl nsw i32 %39, 1
  %41 = sub nsw i32 6, %40
  %42 = sext i32 %38 to i64
  %43 = getelementptr inbounds i8, ptr %.064, i64 %42
  %44 = load i8, ptr %43, align 1
  %45 = zext i8 %44 to i32
  br label %46

46:                                               ; preds = %68, %23
  %.077 = phi i32 [ %27, %23 ], [ %.178, %68 ]
  %.075 = phi i32 [ %30, %23 ], [ %91, %68 ]
  %.073 = phi i32 [ %34, %23 ], [ %.174, %68 ]
  %.071 = phi i32 [ %38, %23 ], [ %.172, %68 ]
  %.069 = phi i32 [ %41, %23 ], [ %92, %68 ]
  %.067 = phi i32 [ %45, %23 ], [ %90, %68 ]
  %.066 = phi i32 [ %2, %23 ], [ %93, %68 ]
  %47 = icmp slt i32 %.075, 0
  br i1 %47, label %48, label %57

48:                                               ; preds = %46
  %49 = trunc nuw i32 %.073 to i8
  %50 = sext i32 %.077 to i64
  %51 = getelementptr inbounds i8, ptr %.063, i64 %50
  store i8 %49, ptr %51, align 1
  %52 = add nsw i32 %.077, 1
  %53 = sext i32 %52 to i64
  %54 = getelementptr inbounds i8, ptr %.063, i64 %53
  %55 = load i8, ptr %54, align 1
  %56 = zext i8 %55 to i32
  br label %57

57:                                               ; preds = %48, %46
  %.178 = phi i32 [ %52, %48 ], [ %.077, %46 ]
  %.176 = phi i32 [ 6, %48 ], [ %.075, %46 ]
  %.174 = phi i32 [ %56, %48 ], [ %.073, %46 ]
  %58 = icmp slt i32 %.069, 0
  br i1 %58, label %59, label %68

59:                                               ; preds = %57
  %60 = trunc i32 %.067 to i8
  %61 = sext i32 %.071 to i64
  %62 = getelementptr inbounds i8, ptr %.064, i64 %61
  store i8 %60, ptr %62, align 1
  %63 = add nsw i32 %.071, 1
  %64 = sext i32 %63 to i64
  %65 = getelementptr inbounds i8, ptr %.064, i64 %64
  %66 = load i8, ptr %65, align 1
  %67 = zext i8 %66 to i32
  br label %68

68:                                               ; preds = %59, %57
  %.172 = phi i32 [ %63, %59 ], [ %.071, %57 ]
  %.170 = phi i32 [ 6, %59 ], [ %.069, %57 ]
  %.168 = phi i32 [ %67, %59 ], [ %.067, %57 ]
  %69 = lshr i32 %.174, %.176
  %70 = and i32 %69, 3
  %71 = zext nneg i32 %70 to i64
  %72 = getelementptr inbounds i32, ptr %10, i64 %71
  %73 = load i32, ptr %72, align 4
  %74 = shl nuw nsw i32 3, %.170
  %75 = xor i32 %74, -1
  %76 = and i32 %.168, %75
  %77 = lshr i32 %73, 9
  %78 = and i32 %77, 31744
  %79 = lshr i32 %73, 6
  %80 = and i32 %79, 992
  %81 = or disjoint i32 %78, %80
  %82 = lshr i32 %73, 3
  %83 = and i32 %82, 31
  %84 = or disjoint i32 %81, %83
  %85 = zext nneg i32 %84 to i64
  %86 = getelementptr inbounds i8, ptr %18, i64 %85
  %87 = load i8, ptr %86, align 1
  %88 = zext i8 %87 to i32
  %89 = shl nuw nsw i32 %88, %.170
  %90 = or i32 %89, %76
  %91 = add nsw i32 %.176, -2
  %92 = add nsw i32 %.170, -2
  %93 = add i32 %.066, -1
  %.not = icmp eq i32 %93, 0
  br i1 %.not, label %94, label %46, !llvm.loop !30

94:                                               ; preds = %68
  %95 = ptrtoint ptr %.064 to i64
  %96 = ptrtoint ptr %.063 to i64
  %97 = trunc i32 %90 to i8
  %98 = sext i32 %.172 to i64
  %99 = getelementptr inbounds i8, ptr %.064, i64 %98
  store i8 %97, ptr %99, align 1
  %100 = add nsw i64 %96, %21
  %101 = inttoptr i64 %100 to ptr
  %102 = add nsw i64 %95, %22
  %103 = inttoptr i64 %102 to ptr
  %104 = add i32 %.0, -1
  %.not81 = icmp eq i32 %104, 0
  br i1 %.not81, label %105, label %23, !llvm.loop !31

105:                                              ; preds = %94
  ret void
}